target datalayout = "e-m:e-p270:32:32-p271:32:32-p272:64:64-i64:64-i128:128-f80:128-n8:16:32:64-S128"
target triple = "x86_64-pc-linux-gnu"

%struct.Saig_Tsim_t_ = type { ptr, i32, ptr, ptr, i32, i32, i32, ptr, ptr, i32 }
%struct.Aig_Man_t_ = type { ptr, ptr, ptr, ptr, ptr, ptr, ptr, %struct.Aig_Obj_t_, i32, i32, i32, i32, i32, i32, [7 x i32], i32, ptr, i32, ptr, i32, ptr, i32, i32, i32, ptr, i32, i32, i32, i32, i32, ptr, ptr, i32, ptr, ptr, i32, ptr, ptr, i32, i32, i32, ptr, ptr, ptr, ptr, ptr, ptr, ptr, ptr, ptr, ptr, ptr, ptr, ptr, ptr, i32, ptr, ptr, ptr, ptr, i32, i64, i64, i64, ptr, ptr }
%struct.Aig_Obj_t_ = type { %union.anon, ptr, ptr, i64, i32, i32, %union.anon.0 }
%union.anon = type { ptr }
%union.anon.0 = type { ptr }
%struct.Vec_Ptr_t_ = type { i32, i32, ptr }

@.str = private unnamed_addr constant [31 x i8] c"Ternary traces for each flop:\0A\00", align 1
@.str.1 = private unnamed_addr constant [9 x i8] c"      : \00", align 1
@.str.2 = private unnamed_addr constant [3 x i8] c"%d\00", align 1
@.str.3 = private unnamed_addr constant [3 x i8] c"  \00", align 1
@.str.4 = private unnamed_addr constant [2 x i8] c"\0A\00", align 1
@.str.5 = private unnamed_addr constant [7 x i8] c"%5d : \00", align 1
@.str.6 = private unnamed_addr constant [2 x i8] c"0\00", align 1
@.str.7 = private unnamed_addr constant [2 x i8] c"1\00", align 1
@.str.8 = private unnamed_addr constant [2 x i8] c"x\00", align 1

; Function Attrs: inlinehint nounwind uwtable
define internal i32 @Abc_InfoHasBit(ptr noundef %0, i32 noundef %1) #4 {
  %3 = alloca ptr, align 8
  %4 = alloca i32, align 4
  store ptr %0, ptr %3, align 8, !tbaa !45
  store i32 %1, ptr %4, align 4, !tbaa !22
  %5 = load ptr, ptr %3, align 8, !tbaa !45
  %6 = load i32, ptr %4, align 4, !tbaa !22
  %7 = ashr i32 %6, 5
  %8 = sext i32 %7 to i64
  %9 = getelementptr inbounds i32, ptr %5, i64 %8
  %10 = load i32, ptr %9, align 4, !tbaa !22
  %11 = load i32, ptr %4, align 4, !tbaa !22
  %12 = and i32 %11, 31
  %13 = shl i32 1, %12
  %14 = and i32 %10, %13
  %15 = icmp ugt i32 %14, 0
  %16 = zext i1 %15 to i32
  ret i32 %16
}

; Function Attrs: inlinehint nounwind uwtable
define internal ptr @Vec_PtrEntry(ptr noundef %0, i32 noundef %1) #4 {
  %3 = alloca ptr, align 8
  %4 = alloca i32, align 4
  store ptr %0, ptr %3, align 8, !tbaa !33
  store i32 %1, ptr %4, align 4, !tbaa !22
  %5 = load ptr, ptr %3, align 8, !tbaa !33
  %6 = getelementptr inbounds nuw %struct.Vec_Ptr_t_, ptr %5, i32 0, i32 2
  %7 = load ptr, ptr %6, align 8, !tbaa !37
  %8 = load i32, ptr %4, align 4, !tbaa !22
  %9 = sext i32 %8 to i64
  %10 = getelementptr inbounds ptr, ptr %7, i64 %9
  %11 = load ptr, ptr %10, align 8, !tbaa !51
  ret ptr %11
}

; Function Attrs: inlinehint nounwind uwtable
define internal i32 @Vec_PtrSize(ptr noundef %0) #4 {
  %2 = alloca ptr, align 8
  store ptr %0, ptr %2, align 8, !tbaa !33
  %3 = load ptr, ptr %2, align 8, !tbaa !33
  %4 = getelementptr inbounds nuw %struct.Vec_Ptr_t_, ptr %3, i32 0, i32 1
  %5 = load i32, ptr %4, align 4, !tbaa !34
  ret i32 %5
}

; Function Attrs: nounwind uwtable
define void @Saig_TsiPrintTraces(ptr noundef %0, i32 noundef %1, i32 noundef %2, i32 noundef %3) #0 {
  %5 = alloca ptr, align 8
  %6 = alloca i32, align 4
  %7 = alloca i32, align 4
  %8 = alloca i32, align 4
  %9 = alloca ptr, align 8
  %10 = alloca i32, align 4
  %11 = alloca i32, align 4
  %12 = alloca i32, align 4
  %13 = alloca i32, align 4
  %14 = alloca i32, align 4
  store ptr %0, ptr %5, align 8, !tbaa !8
  store i32 %1, ptr %6, align 4, !tbaa !22
  store i32 %2, ptr %7, align 4, !tbaa !22
  store i32 %3, ptr %8, align 4, !tbaa !22
  call void @llvm.lifetime.start.p0(i64 8, ptr %9) #9
  call void @llvm.lifetime.start.p0(i64 4, ptr %10) #9
  %15 = load ptr, ptr %5, align 8, !tbaa !8
  %16 = getelementptr inbounds nuw %struct.Saig_Tsim_t_, ptr %15, i32 0, i32 0
  %17 = load ptr, ptr %16, align 8, !tbaa !10
  %18 = getelementptr inbounds nuw %struct.Aig_Man_t_, ptr %17, i32 0, i32 8
  %19 = load i32, ptr %18, align 8, !tbaa !23
  store i32 %19, ptr %10, align 4, !tbaa !22
  call void @llvm.lifetime.start.p0(i64 4, ptr %11) #9
  call void @llvm.lifetime.start.p0(i64 4, ptr %12) #9
  call void @llvm.lifetime.start.p0(i64 4, ptr %13) #9
  call void @llvm.lifetime.start.p0(i64 4, ptr %14) #9
  store i32 0, ptr %14, align 4, !tbaa !22
  %20 = call i32 (ptr, ...) @printf(ptr noundef @.str)
  %21 = call i32 (ptr, ...) @printf(ptr noundef @.str.1)
  store i32 0, ptr %12, align 4, !tbaa !22
  br label %22

22:                                               ; preds = %36, %4
  %23 = load i32, ptr %12, align 4, !tbaa !22
  %24 = load ptr, ptr %5, align 8, !tbaa !8
  %25 = getelementptr inbounds nuw %struct.Saig_Tsim_t_, ptr %24, i32 0, i32 2
  %26 = load ptr, ptr %25, align 8, !tbaa !18
  %27 = call i32 @Vec_PtrSize(ptr noundef %26)
  %28 = load i32, ptr %8, align 4, !tbaa !22
  %29 = sub nsw i32 %27, %28
  %30 = sub nsw i32 %29, 1
  %31 = icmp slt i32 %23, %30
  br i1 %31, label %32, label %39

32:                                               ; preds = %22
  %33 = load i32, ptr %12, align 4, !tbaa !22
  %34 = srem i32 %33, 10
  %35 = call i32 (ptr, ...) @printf(ptr noundef @.str.2, i32 noundef %34)
  br label %36

36:                                               ; preds = %32
  %37 = load i32, ptr %12, align 4, !tbaa !22
  %38 = add nsw i32 %37, 1
  store i32 %38, ptr %12, align 4, !tbaa !22
  br label %22, !llvm.loop !55

39:                                               ; preds = %22
  %40 = call i32 (ptr, ...) @printf(ptr noundef @.str.3)
  store i32 0, ptr %12, align 4, !tbaa !22
  br label %41

41:                                               ; preds = %49, %39
  %42 = load i32, ptr %12, align 4, !tbaa !22
  %43 = load i32, ptr %8, align 4, !tbaa !22
  %44 = icmp slt i32 %42, %43
  br i1 %44, label %45, label %52

45:                                               ; preds = %41
  %46 = load i32, ptr %12, align 4, !tbaa !22
  %47 = srem i32 %46, 10
  %48 = call i32 (ptr, ...) @printf(ptr noundef @.str.2, i32 noundef %47)
  br label %49

49:                                               ; preds = %45
  %50 = load i32, ptr %12, align 4, !tbaa !22
  %51 = add nsw i32 %50, 1
  store i32 %51, ptr %12, align 4, !tbaa !22
  br label %41, !llvm.loop !56

52:                                               ; preds = %41
  %53 = call i32 (ptr, ...) @printf(ptr noundef @.str.4)
  store i32 0, ptr %12, align 4, !tbaa !22
  br label %54

54:                                               ; preds = %120, %52
  %55 = load i32, ptr %12, align 4, !tbaa !22
  %56 = load i32, ptr %10, align 4, !tbaa !22
  %57 = icmp slt i32 %55, %56
  br i1 %57, label %58, label %123

58:                                               ; preds = %54
  %59 = load i32, ptr %14, align 4, !tbaa !22
  %60 = add nsw i32 %59, 1
  store i32 %60, ptr %14, align 4, !tbaa !22
  %61 = call i32 (ptr, ...) @printf(ptr noundef @.str.5, i32 noundef %59)
  store i32 0, ptr %13, align 4, !tbaa !22
  br label %62

62:                                               ; preds = %115, %58
  %63 = load i32, ptr %13, align 4, !tbaa !22
  %64 = load ptr, ptr %5, align 8, !tbaa !8
  %65 = getelementptr inbounds nuw %struct.Saig_Tsim_t_, ptr %64, i32 0, i32 2
  %66 = load ptr, ptr %65, align 8, !tbaa !18
  %67 = call i32 @Vec_PtrSize(ptr noundef %66)
  %68 = sub nsw i32 %67, 1
  %69 = icmp slt i32 %63, %68
  br i1 %69, label %70, label %76

70:                                               ; preds = %62
  %71 = load ptr, ptr %5, align 8, !tbaa !8
  %72 = getelementptr inbounds nuw %struct.Saig_Tsim_t_, ptr %71, i32 0, i32 2
  %73 = load ptr, ptr %72, align 8, !tbaa !18
  %74 = load i32, ptr %13, align 4, !tbaa !22
  %75 = call ptr @Vec_PtrEntry(ptr noundef %73, i32 noundef %74)
  store ptr %75, ptr %9, align 8, !tbaa !45
  br label %76

76:                                               ; preds = %70, %62
  %77 = phi i1 [ false, %62 ], [ true, %70 ]
  br i1 %77, label %78, label %118

78:                                               ; preds = %76
  %79 = load ptr, ptr %9, align 8, !tbaa !45
  %80 = load i32, ptr %12, align 4, !tbaa !22
  %81 = mul nsw i32 2, %80
  %82 = add nsw i32 %81, 1
  %83 = call i32 @Abc_InfoHasBit(ptr noundef %79, i32 noundef %82)
  %84 = shl i32 %83, 1
  %85 = load ptr, ptr %9, align 8, !tbaa !45
  %86 = load i32, ptr %12, align 4, !tbaa !22
  %87 = mul nsw i32 2, %86
  %88 = call i32 @Abc_InfoHasBit(ptr noundef %85, i32 noundef %87)
  %89 = or i32 %84, %88
  store i32 %89, ptr %11, align 4, !tbaa !22
  %90 = load i32, ptr %11, align 4, !tbaa !22
  %91 = icmp eq i32 %90, 1
  br i1 %91, label %92, label %94

92:                                               ; preds = %78
  %93 = call i32 (ptr, ...) @printf(ptr noundef @.str.6)
  br label %107

94:                                               ; preds = %78
  %95 = load i32, ptr %11, align 4, !tbaa !22
  %96 = icmp eq i32 %95, 2
  br i1 %96, label %97, label %99

97:                                               ; preds = %94
  %98 = call i32 (ptr, ...) @printf(ptr noundef @.str.7)
  br label %106

99:                                               ; preds = %94
  %100 = load i32, ptr %11, align 4, !tbaa !22
  %101 = icmp eq i32 %100, 3
  br i1 %101, label %102, label %104

102:                                              ; preds = %99
  %103 = call i32 (ptr, ...) @printf(ptr noundef @.str.8)
  br label %105

104:                                              ; preds = %99
  br label %105

105:                                              ; preds = %104, %102
  br label %106

106:                                              ; preds = %105, %97
  br label %107

107:                                              ; preds = %106, %92
  %108 = load i32, ptr %13, align 4, !tbaa !22
  %109 = load i32, ptr %7, align 4, !tbaa !22
  %110 = sub nsw i32 %109, 1
  %111 = icmp eq i32 %108, %110
  br i1 %111, label %112, label %114

112:                                              ; preds = %107
  %113 = call i32 (ptr, ...) @printf(ptr noundef @.str.3)
  br label %114

114:                                              ; preds = %112, %107
  br label %115

115:                                              ; preds = %114
  %116 = load i32, ptr %13, align 4, !tbaa !22
  %117 = add nsw i32 %116, 1
  store i32 %117, ptr %13, align 4, !tbaa !22
  br label %62, !llvm.loop !57

118:                                              ; preds = %76
  %119 = call i32 (ptr, ...) @printf(ptr noundef @.str.4)
  br label %120

120:                                              ; preds = %118
  %121 = load i32, ptr %12, align 4, !tbaa !22
  %122 = add nsw i32 %121, 1
  store i32 %122, ptr %12, align 4, !tbaa !22
  br label %54, !llvm.loop !58

123:                                              ; preds = %54
  call void @llvm.lifetime.end.p0(i64 4, ptr %14) #9
  call void @llvm.lifetime.end.p0(i64 4, ptr %13) #9
  call void @llvm.lifetime.end.p0(i64 4, ptr %12) #9
  call void @llvm.lifetime.end.p0(i64 4, ptr %11) #9
  call void @llvm.lifetime.end.p0(i64 4, ptr %10) #9
  call void @llvm.lifetime.end.p0(i64 8, ptr %9) #9
  ret void
}