; Function Attrs: nofree nounwind uwtable
define void @Saig_TsiPrintTraces(ptr noundef readonly captures(none) %0, i32 %1, i32 noundef %2, i32 noundef %3) local_unnamed_addr #7 {
  %5 = load ptr, ptr %0, align 8, !tbaa !3
  %6 = getelementptr inbounds nuw i8, ptr %5, i64 104
  %7 = load i32, ptr %6, align 8, !tbaa !14
  %puts = tail call i32 @puts(ptr nonnull dereferenceable(1) @str)
  %8 = tail call i32 (ptr, ...) @printf(ptr noundef nonnull dereferenceable(1) @.str.1)
  %9 = getelementptr inbounds nuw i8, ptr %0, i64 16
  %10 = xor i32 %3, -1
  %11 = load ptr, ptr %9, align 8, !tbaa !29
  %12 = getelementptr i8, ptr %11, i64 4
  %.val3436 = load i32, ptr %12, align 4, !tbaa !25
  %13 = sub i32 %3, %.val3436
  %14 = icmp slt i32 %13, -1
  br i1 %14, label %.lr.ph, label %._crit_edge

.lr.ph:                                           ; preds = %4, %.lr.ph
  %.02837 = phi i32 [ %17, %.lr.ph ], [ 0, %4 ]
  %15 = urem i32 %.02837, 10
  %16 = tail call i32 (ptr, ...) @printf(ptr noundef nonnull dereferenceable(1) @.str.2, i32 noundef %15)
  %17 = add nuw nsw i32 %.02837, 1
  %18 = load ptr, ptr %9, align 8, !tbaa !29
  %19 = getelementptr i8, ptr %18, i64 4
  %.val34 = load i32, ptr %19, align 4, !tbaa !25
  %20 = add i32 %.val34, %10
  %21 = icmp slt i32 %17, %20
  br i1 %21, label %.lr.ph, label %._crit_edge, !llvm.loop !48

._crit_edge:                                      ; preds = %.lr.ph, %4
  %22 = tail call i32 (ptr, ...) @printf(ptr noundef nonnull dereferenceable(1) @.str.3)
  %23 = icmp sgt i32 %3, 0
  br i1 %23, label %.lr.ph40, label %._crit_edge41

.lr.ph40:                                         ; preds = %._crit_edge, %.lr.ph40
  %.138 = phi i32 [ %26, %.lr.ph40 ], [ 0, %._crit_edge ]
  %24 = urem i32 %.138, 10
  %25 = tail call i32 (ptr, ...) @printf(ptr noundef nonnull dereferenceable(1) @.str.2, i32 noundef %24)
  %26 = add nuw nsw i32 %.138, 1
  %exitcond.not = icmp eq i32 %26, %3
  br i1 %exitcond.not, label %._crit_edge41, label %.lr.ph40, !llvm.loop !49

._crit_edge41:                                    ; preds = %.lr.ph40, %._crit_edge
  %putchar = tail call i32 @putchar(i32 10)
  %27 = icmp sgt i32 %7, 0
  br i1 %27, label %.lr.ph49, label %._crit_edge50

.lr.ph49:                                         ; preds = %._crit_edge41
  %28 = add nsw i32 %2, -1
  %29 = zext i32 %28 to i64
  br label %30

30:                                               ; preds = %.lr.ph49, %.critedge
  %.047 = phi i32 [ 0, %.lr.ph49 ], [ %31, %.critedge ]
  %31 = add nuw nsw i32 %.047, 1
  %32 = tail call i32 (ptr, ...) @printf(ptr noundef nonnull dereferenceable(1) @.str.5, i32 noundef %.047)
  %33 = load ptr, ptr %9, align 8, !tbaa !29
  %34 = getelementptr i8, ptr %33, i64 4
  %.val42 = load i32, ptr %34, align 4, !tbaa !25
  %35 = icmp sgt i32 %.val42, 1
  br i1 %35, label %.lr.ph45, label %.critedge

.lr.ph45:                                         ; preds = %30
  %36 = shl nuw nsw i32 %.047, 1
  %37 = lshr i32 %.047, 4
  %38 = zext nneg i32 %37 to i64
  %39 = and i32 %36, 30
  %40 = or disjoint i32 %39, 1
  br label %41

41:                                               ; preds = %.lr.ph45, %60
  %indvars.iv = phi i64 [ 0, %.lr.ph45 ], [ %indvars.iv.next, %60 ]
  %42 = phi ptr [ %33, %.lr.ph45 ], [ %61, %60 ]
  %43 = getelementptr i8, ptr %42, i64 8
  %.val35 = load ptr, ptr %43, align 8, !tbaa !28
  %44 = getelementptr inbounds nuw ptr, ptr %.val35, i64 %indvars.iv
  %45 = load ptr, ptr %44, align 8, !tbaa !43
  %46 = getelementptr inbounds nuw i32, ptr %45, i64 %38
  %47 = load i32, ptr %46, align 4, !tbaa !39
  %48 = lshr i32 %47, %40
  %49 = shl nuw i32 %48, 1
  %50 = and i32 %49, 2
  %51 = lshr i32 %47, %39
  %52 = and i32 %51, 1
  %53 = or disjoint i32 %50, %52
  switch i32 %53, label %default.unreachable [
    i32 1, label %.sink.split
    i32 2, label %54
    i32 3, label %55
    i32 0, label %56
  ]

54:                                               ; preds = %41
  br label %.sink.split

55:                                               ; preds = %41
  br label %.sink.split

default.unreachable:                              ; preds = %41
  unreachable

.sink.split:                                      ; preds = %41, %55, %54
  %.sink = phi i32 [ 49, %54 ], [ 120, %55 ], [ 48, %41 ]
  %putchar32 = tail call i32 @putchar(i32 %.sink)
  br label %56

56:                                               ; preds = %.sink.split, %41
  %57 = icmp eq i64 %indvars.iv, %29
  br i1 %57, label %58, label %60

58:                                               ; preds = %56
  %59 = tail call i32 (ptr, ...) @printf(ptr noundef nonnull dereferenceable(1) @.str.3)
  br label %60

60:                                               ; preds = %56, %58
  %indvars.iv.next = add nuw nsw i64 %indvars.iv, 1
  %61 = load ptr, ptr %9, align 8, !tbaa !29
  %62 = getelementptr i8, ptr %61, i64 4
  %.val = load i32, ptr %62, align 4, !tbaa !25
  %63 = add nsw i32 %.val, -1
  %64 = sext i32 %63 to i64
  %65 = icmp slt i64 %indvars.iv.next, %64
  br i1 %65, label %41, label %.critedge, !llvm.loop !50

.critedge:                                        ; preds = %60, %30
  %putchar30 = tail call i32 @putchar(i32 10)
  %exitcond52.not = icmp eq i32 %31, %7
  br i1 %exitcond52.not, label %._crit_edge50, label %30, !llvm.loop !51

._crit_edge50:                                    ; preds = %.critedge, %._crit_edge41
  ret void
}